(dp1
S'output'
p2
S"<type 'exceptions.NameError'> global name 'inspect' is not defined"
p3
sS'layer'
p4
S'/home/jurgis/dev/web2py_src/applications/tutor/controllers/lesson1.py'
p5
sS'code'
p6
S'# -*- coding: utf-8 -*-\n# try something like\n\ndef get_active_code():\n#     return BEAUTIFY( inspect.currentframe().f_code.co_varnames )\n    name = inspect.currentframe().f_back.f_code.co_name\n    if request.function == name:\n        lines, start_line = inspect.getsourcelines( globals()[request.function] ) \n        code = inspect.getsource( globals()[request.function] ) \n        return CODE(code, language="python", link=\'/examples/global/vars/\', counter=start_line)\n    \n\ndef index(): return dict(message="hello from lesson1.py")\n\n\ndef GET_vars():\n    link = URL( "paspausk",  vars={\'a\':5, \'b\':"labas" } ) \n    return DIV( link, get_active_code() )\n\nresponse._vars=response._caller(GET_vars)\n'
p7
sS'snapshot'
p8
(dp9
sS'traceback'
p10
S'Traceback (most recent call last):\n  File "/home/jurgis/dev/web2py_src/gluon/restricted.py", line 227, in restricted\n    exec ccode in environment\n  File "/home/jurgis/dev/web2py_src/applications/tutor/controllers/lesson1.py", line 20, in <module>\n  File "/home/jurgis/dev/web2py_src/gluon/globals.py", line 417, in <lambda>\n    self._caller = lambda f: f()\n  File "/home/jurgis/dev/web2py_src/applications/tutor/controllers/lesson1.py", line 18, in GET_vars\n    return DIV( link, get_active_code() )\n  File "/home/jurgis/dev/web2py_src/applications/tutor/controllers/lesson1.py", line 6, in get_active_code\n    name = inspect.currentframe().f_back.f_code.co_name\nNameError: global name \'inspect\' is not defined\n'
p11
s.